target datalayout = "e-m:e-p270:32:32-p271:32:32-p272:64:64-i64:64-i128:128-f80:128-n8:16:32:64-S128"
target triple = "x86_64-pc-linux-gnu"

%"class.cv::bioinspired::RetinaColor" = type <{ ptr, %"class.cv::bioinspired::BasicRetinaFilter", i32, i8, [3 x i8], float, [4 x i8], ptr, ptr, %"class.std::valarray.0", %"class.std::valarray", %"class.std::valarray", %"class.std::valarray", %"class.std::valarray", %"class.std::valarray", %"class.std::valarray", %"class.std::valarray", float, float, float, i8, [3 x i8] }>
%"class.cv::bioinspired::BasicRetinaFilter" = type { %"class.cv::bioinspired::TemplateBuffer", %"class.std::valarray", i32, i32, %"class.std::valarray", %"class.std::valarray", %"class.std::valarray", float, float, float, float, float, float, float, float }
%"class.cv::bioinspired::TemplateBuffer" = type { ptr, %"class.std::valarray", i64, i64, i64, i64, i64 }
%"class.std::valarray.0" = type { i64, ptr }
%"class.std::valarray" = type { i64, ptr }
%"class.cv::Range" = type { i32, i32 }
%"class.cv::ParallelLoopBody" = type { ptr }
%"class.cv::bioinspired::RetinaColor::Parallel_adaptiveVerticalAnticausalFilter_multGain" = type <{ %"class.cv::ParallelLoopBody", ptr, ptr, i32, i32, float, [4 x i8] }>

@_ZTVN2cv16ParallelLoopBodyE = available_externally unnamed_addr constant { [5 x ptr] } { [5 x ptr] [ptr null, ptr @_ZTIN2cv16ParallelLoopBodyE, ptr @_ZN2cv16ParallelLoopBodyD1Ev, ptr @_ZN2cv16ParallelLoopBodyD0Ev, ptr @__cxa_pure_virtual] }, align 8

; Function Attrs: inlinehint mustprogress nounwind uwtable
define linkonce_odr hidden void @_ZN2cv16ParallelLoopBodyC2Ev(ptr noundef nonnull align 8 dereferenceable(8) %0) unnamed_addr #7 comdat align 2 {
  %2 = alloca ptr, align 8
  store ptr %0, ptr %2, align 8, !tbaa !132
  %3 = load ptr, ptr %2, align 8
  store ptr getelementptr inbounds inrange(-16, 24) ({ [5 x ptr] }, ptr @_ZTVN2cv16ParallelLoopBodyE, i32 0, i32 0, i32 2), ptr %3, align 8, !tbaa !10
  ret void
}

; Function Attrs: mustprogress nounwind uwtable
define linkonce_odr hidden void @_ZN2cv11bioinspired11RetinaColor50Parallel_adaptiveVerticalAnticausalFilter_multGainC2EPfPKfjjf(ptr noundef nonnull align 8 dereferenceable(36) %0, ptr noundef %1, ptr noundef %2, i32 noundef %3, i32 noundef %4, float noundef %5) unnamed_addr #8 comdat align 2 {
  %7 = alloca ptr, align 8
  %8 = alloca ptr, align 8
  %9 = alloca ptr, align 8
  %10 = alloca i32, align 4
  %11 = alloca i32, align 4
  %12 = alloca float, align 4
  store ptr %0, ptr %7, align 8, !tbaa !121
  store ptr %1, ptr %8, align 8, !tbaa !39
  store ptr %2, ptr %9, align 8, !tbaa !39
  store i32 %3, ptr %10, align 4, !tbaa !8
  store i32 %4, ptr %11, align 4, !tbaa !8
  store float %5, ptr %12, align 4, !tbaa !30
  %13 = load ptr, ptr %7, align 8
  call void @_ZN2cv16ParallelLoopBodyC2Ev(ptr noundef nonnull align 8 dereferenceable(8) %13) #3
  store ptr getelementptr inbounds inrange(-16, 24) ({ [5 x ptr] }, ptr @_ZTVN2cv11bioinspired11RetinaColor50Parallel_adaptiveVerticalAnticausalFilter_multGainE, i32 0, i32 0, i32 2), ptr %13, align 8, !tbaa !10
  %14 = getelementptr inbounds nuw %"class.cv::bioinspired::RetinaColor::Parallel_adaptiveVerticalAnticausalFilter_multGain", ptr %13, i32 0, i32 1
  %15 = load ptr, ptr %8, align 8, !tbaa !39
  store ptr %15, ptr %14, align 8, !tbaa !123
  %16 = getelementptr inbounds nuw %"class.cv::bioinspired::RetinaColor::Parallel_adaptiveVerticalAnticausalFilter_multGain", ptr %13, i32 0, i32 2
  %17 = load ptr, ptr %9, align 8, !tbaa !39
  store ptr %17, ptr %16, align 8, !tbaa !125
  %18 = getelementptr inbounds nuw %"class.cv::bioinspired::RetinaColor::Parallel_adaptiveVerticalAnticausalFilter_multGain", ptr %13, i32 0, i32 3
  %19 = load i32, ptr %10, align 4, !tbaa !8
  store i32 %19, ptr %18, align 8, !tbaa !126
  %20 = getelementptr inbounds nuw %"class.cv::bioinspired::RetinaColor::Parallel_adaptiveVerticalAnticausalFilter_multGain", ptr %13, i32 0, i32 4
  %21 = load i32, ptr %11, align 4, !tbaa !8
  store i32 %21, ptr %20, align 4, !tbaa !127
  %22 = getelementptr inbounds nuw %"class.cv::bioinspired::RetinaColor::Parallel_adaptiveVerticalAnticausalFilter_multGain", ptr %13, i32 0, i32 5
  %23 = load float, ptr %12, align 4, !tbaa !30
  store float %23, ptr %22, align 8, !tbaa !128
  ret void
}

; Function Attrs: inlinehint mustprogress nounwind uwtable
define linkonce_odr hidden noundef i32 @_ZN2cv11bioinspired14TemplateBufferIfE12getNBcolumnsEv(ptr noundef nonnull align 8 dereferenceable(64) %0) #7 comdat align 2 {
  %2 = alloca ptr, align 8
  store ptr %0, ptr %2, align 8, !tbaa !56
  %3 = load ptr, ptr %2, align 8
  %4 = getelementptr inbounds nuw %"class.cv::bioinspired::TemplateBuffer", ptr %3, i32 0, i32 3
  %5 = load i64, ptr %4, align 8, !tbaa !57
  %6 = trunc i64 %5 to i32
  ret i32 %6
}

; Function Attrs: inlinehint mustprogress nounwind uwtable
define linkonce_odr hidden noundef i32 @_ZN2cv11bioinspired14TemplateBufferIfE9getNBrowsEv(ptr noundef nonnull align 8 dereferenceable(64) %0) #7 comdat align 2 {
  %2 = alloca ptr, align 8
  store ptr %0, ptr %2, align 8, !tbaa !56
  %3 = load ptr, ptr %2, align 8
  %4 = getelementptr inbounds nuw %"class.cv::bioinspired::TemplateBuffer", ptr %3, i32 0, i32 2
  %5 = load i64, ptr %4, align 8, !tbaa !73
  %6 = trunc i64 %5 to i32
  ret i32 %6
}

; Function Attrs: inlinehint mustprogress nounwind uwtable
define linkonce_odr hidden noundef i32 @_ZN2cv11bioinspired14TemplateBufferIfE11getNBpixelsEv(ptr noundef nonnull align 8 dereferenceable(64) %0) #7 comdat align 2 {
  %2 = alloca ptr, align 8
  store ptr %0, ptr %2, align 8, !tbaa !56
  %3 = load ptr, ptr %2, align 8
  %4 = getelementptr inbounds nuw %"class.cv::bioinspired::TemplateBuffer", ptr %3, i32 0, i32 5
  %5 = load i64, ptr %4, align 8, !tbaa !58
  %6 = trunc i64 %5 to i32
  ret i32 %6
}

; Function Attrs: inlinehint mustprogress nounwind uwtable
define linkonce_odr hidden noundef nonnull align 4 dereferenceable(4) ptr @_ZNSt8valarrayIfEixEm(ptr noundef nonnull align 8 dereferenceable(16) %0, i64 noundef %1) #7 comdat align 2 {
  %3 = alloca ptr, align 8
  %4 = alloca i64, align 8
  store ptr %0, ptr %3, align 8, !tbaa !36
  store i64 %1, ptr %4, align 8, !tbaa !33
  %5 = load ptr, ptr %3, align 8
  %6 = getelementptr inbounds nuw %"class.std::valarray", ptr %5, i32 0, i32 1
  %7 = load ptr, ptr %6, align 8, !tbaa !38
  %8 = load i64, ptr %4, align 8, !tbaa !33
  %9 = getelementptr inbounds nuw float, ptr %7, i64 %8
  ret ptr %9
}

; Function Attrs: inlinehint mustprogress nounwind uwtable
define linkonce_odr hidden void @_ZN2cv5RangeC2Eii(ptr noundef nonnull align 4 dereferenceable(8) %0, i32 noundef %1, i32 noundef %2) unnamed_addr #7 comdat align 2 {
  %4 = alloca ptr, align 8
  %5 = alloca i32, align 4
  %6 = alloca i32, align 4
  store ptr %0, ptr %4, align 8, !tbaa !74
  store i32 %1, ptr %5, align 4, !tbaa !8
  store i32 %2, ptr %6, align 4, !tbaa !8
  %7 = load ptr, ptr %4, align 8
  %8 = getelementptr inbounds nuw %"class.cv::Range", ptr %7, i32 0, i32 0
  %9 = load i32, ptr %5, align 4, !tbaa !8
  store i32 %9, ptr %8, align 4, !tbaa !76
  %10 = getelementptr inbounds nuw %"class.cv::Range", ptr %7, i32 0, i32 1
  %11 = load i32, ptr %6, align 4, !tbaa !8
  store i32 %11, ptr %10, align 4, !tbaa !78
  ret void
}

; Function Attrs: mustprogress uwtable
define hidden void @_ZN2cv11bioinspired11RetinaColor42_adaptiveVerticalAnticausalFilter_multGainEPfjj(ptr noundef nonnull align 8 dereferenceable(349) %0, ptr noundef %1, i32 noundef %2, i32 noundef %3) #4 align 2 personality ptr @__gxx_personality_v0 {
  %5 = alloca ptr, align 8
  %6 = alloca ptr, align 8
  %7 = alloca i32, align 4
  %8 = alloca i32, align 4
  %9 = alloca %"class.cv::Range", align 4
  %10 = alloca %"class.cv::bioinspired::RetinaColor::Parallel_adaptiveVerticalAnticausalFilter_multGain", align 8
  %11 = alloca ptr, align 8
  %12 = alloca i32, align 4
  store ptr %0, ptr %5, align 8, !tbaa !3
  store ptr %1, ptr %6, align 8, !tbaa !39
  store i32 %2, ptr %7, align 4, !tbaa !8
  store i32 %3, ptr %8, align 4, !tbaa !8
  %13 = load ptr, ptr %5, align 8
  call void @llvm.lifetime.start.p0(i64 8, ptr %9) #3
  %14 = load i32, ptr %7, align 4, !tbaa !8
  %15 = load i32, ptr %8, align 4, !tbaa !8
  call void @_ZN2cv5RangeC2Eii(ptr noundef nonnull align 4 dereferenceable(8) %9, i32 noundef %14, i32 noundef %15)
  call void @llvm.lifetime.start.p0(i64 40, ptr %10) #3
  %16 = load ptr, ptr %6, align 8, !tbaa !39
  %17 = getelementptr inbounds nuw %"class.cv::bioinspired::RetinaColor", ptr %13, i32 0, i32 16
  %18 = call noundef nonnull align 4 dereferenceable(4) ptr @_ZNSt8valarrayIfEixEm(ptr noundef nonnull align 8 dereferenceable(16) %17, i64 noundef 0) #3
  %19 = getelementptr inbounds i8, ptr %13, i64 8
  %20 = getelementptr inbounds nuw %"class.cv::bioinspired::BasicRetinaFilter", ptr %19, i32 0, i32 0
  %21 = call noundef i32 @_ZN2cv11bioinspired14TemplateBufferIfE11getNBpixelsEv(ptr noundef nonnull align 8 dereferenceable(64) %20)
  %22 = zext i32 %21 to i64
  %23 = getelementptr inbounds nuw float, ptr %18, i64 %22
  %24 = getelementptr inbounds i8, ptr %13, i64 8
  %25 = getelementptr inbounds nuw %"class.cv::bioinspired::BasicRetinaFilter", ptr %24, i32 0, i32 0
  %26 = call noundef i32 @_ZN2cv11bioinspired14TemplateBufferIfE9getNBrowsEv(ptr noundef nonnull align 8 dereferenceable(64) %25)
  %27 = getelementptr inbounds i8, ptr %13, i64 8
  %28 = getelementptr inbounds nuw %"class.cv::bioinspired::BasicRetinaFilter", ptr %27, i32 0, i32 0
  %29 = call noundef i32 @_ZN2cv11bioinspired14TemplateBufferIfE12getNBcolumnsEv(ptr noundef nonnull align 8 dereferenceable(64) %28)
  %30 = getelementptr inbounds i8, ptr %13, i64 8
  %31 = getelementptr inbounds nuw %"class.cv::bioinspired::BasicRetinaFilter", ptr %30, i32 0, i32 14
  %32 = load float, ptr %31, align 4, !tbaa !89
  call void @_ZN2cv11bioinspired11RetinaColor50Parallel_adaptiveVerticalAnticausalFilter_multGainC2EPfPKfjjf(ptr noundef nonnull align 8 dereferenceable(36) %10, ptr noundef %16, ptr noundef %23, i32 noundef %26, i32 noundef %29, float noundef %32)
  invoke void @_ZN2cv13parallel_for_ERKNS_5RangeERKNS_16ParallelLoopBodyEd(ptr noundef nonnull align 4 dereferenceable(8) %9, ptr noundef nonnull align 8 dereferenceable(8) %10, double noundef -1.000000e+00)
          to label %33 unwind label %34

33:                                               ; preds = %4
  call void @_ZN2cv16ParallelLoopBodyD2Ev(ptr noundef nonnull align 8 dereferenceable(36) %10) #3
  call void @llvm.lifetime.end.p0(i64 40, ptr %10) #3
  call void @llvm.lifetime.end.p0(i64 8, ptr %9) #3
  ret void

34:                                               ; preds = %4
  %35 = landingpad { ptr, i32 }
          cleanup
  %36 = extractvalue { ptr, i32 } %35, 0
  store ptr %36, ptr %11, align 8
  %37 = extractvalue { ptr, i32 } %35, 1
  store i32 %37, ptr %12, align 4
  call void @_ZN2cv16ParallelLoopBodyD2Ev(ptr noundef nonnull align 8 dereferenceable(36) %10) #3
  call void @llvm.lifetime.end.p0(i64 40, ptr %10) #3
  call void @llvm.lifetime.end.p0(i64 8, ptr %9) #3
  br label %38

38:                                               ; preds = %34
  %39 = load ptr, ptr %11, align 8
  %40 = load i32, ptr %12, align 4
  %41 = insertvalue { ptr, i32 } poison, ptr %39, 0
  %42 = insertvalue { ptr, i32 } %41, i32 %40, 1
  resume { ptr, i32 } %42
}