; Function Attrs: mustprogress uwtable
define hidden void @_ZN2cv11bioinspired11RetinaColor42_adaptiveVerticalAnticausalFilter_multGainEPfjj(ptr noundef nonnull readonly align 8 captures(none) dereferenceable(349) %0, ptr noundef %1, i32 noundef %2, i32 noundef %3) local_unnamed_addr #3 align 2 personality ptr @__gxx_personality_v0 {
  %5 = alloca %"class.cv::Range", align 4
  %6 = alloca %"class.cv::bioinspired::RetinaColor::Parallel_adaptiveVerticalAnticausalFilter_multGain", align 8
  call void @llvm.lifetime.start.p0(i64 8, ptr nonnull %5) #19
  store i32 %2, ptr %5, align 4, !tbaa !151
  %7 = getelementptr inbounds nuw i8, ptr %5, i64 4
  store i32 %3, ptr %7, align 4, !tbaa !153
  call void @llvm.lifetime.start.p0(i64 40, ptr nonnull %6) #19
  %8 = getelementptr inbounds nuw i8, ptr %0, i64 328
  %9 = load ptr, ptr %8, align 8, !tbaa !16
  %10 = getelementptr inbounds nuw i8, ptr %0, i64 56
  %11 = load i64, ptr %10, align 8, !tbaa !61
  %12 = and i64 %11, 4294967295
  %13 = getelementptr inbounds nuw float, ptr %9, i64 %12
  %14 = getelementptr inbounds nuw i8, ptr %0, i64 32
  %15 = load i64, ptr %14, align 8, !tbaa !150
  %16 = trunc i64 %15 to i32
  %17 = getelementptr inbounds nuw i8, ptr %0, i64 40
  %18 = load i64, ptr %17, align 8, !tbaa !62
  %19 = trunc i64 %18 to i32
  %20 = getelementptr inbounds nuw i8, ptr %0, i64 172
  %21 = load float, ptr %20, align 4, !tbaa !180
  store ptr getelementptr inbounds nuw inrange(-16, 24) (i8, ptr @_ZTVN2cv11bioinspired11RetinaColor50Parallel_adaptiveVerticalAnticausalFilter_multGainE, i64 16), ptr %6, align 8, !tbaa !3
  %22 = getelementptr inbounds nuw i8, ptr %6, i64 8
  store ptr %1, ptr %22, align 8, !tbaa !186
  %23 = getelementptr inbounds nuw i8, ptr %6, i64 16
  store ptr %13, ptr %23, align 8, !tbaa !188
  %24 = getelementptr inbounds nuw i8, ptr %6, i64 24
  store i32 %16, ptr %24, align 8, !tbaa !189
  %25 = getelementptr inbounds nuw i8, ptr %6, i64 28
  store i32 %19, ptr %25, align 4, !tbaa !190
  %26 = getelementptr inbounds nuw i8, ptr %6, i64 32
  store float %21, ptr %26, align 8, !tbaa !191
  invoke void @_ZN2cv13parallel_for_ERKNS_5RangeERKNS_16ParallelLoopBodyEd(ptr noundef nonnull align 4 dereferenceable(8) %5, ptr noundef nonnull align 8 dereferenceable(8) %6, double noundef -1.000000e+00)
          to label %27 unwind label %28

27:                                               ; preds = %4
  call void @_ZN2cv16ParallelLoopBodyD2Ev(ptr noundef nonnull align 8 dereferenceable(36) %6) #19
  call void @llvm.lifetime.end.p0(i64 40, ptr nonnull %6) #19
  call void @llvm.lifetime.end.p0(i64 8, ptr nonnull %5) #19
  ret void

28:                                               ; preds = %4
  %29 = landingpad { ptr, i32 }
          cleanup
  call void @_ZN2cv16ParallelLoopBodyD2Ev(ptr noundef nonnull align 8 dereferenceable(36) %6) #19
  call void @llvm.lifetime.end.p0(i64 40, ptr nonnull %6) #19
  call void @llvm.lifetime.end.p0(i64 8, ptr nonnull %5) #19
  resume { ptr, i32 } %29
}